target datalayout = "e-m:e-p270:32:32-p271:32:32-p272:64:64-i64:64-i128:128-f80:128-n8:16:32:64-S128"
target triple = "x86_64-unknown-linux-gnu"

%"class.cvc5::internal::NodeTemplate" = type { ptr }
%"class.cvc5::internal::theory::quantifiers::inst::CandidateGenerator" = type { %"class.cvc5::internal::EnvObj", ptr, ptr }
%"class.cvc5::internal::EnvObj" = type { ptr, ptr }
%"class.cvc5::internal::NodeTemplate.432" = type { ptr }
%"class.cvc5::internal::theory::quantifiers::inst::CandidateGeneratorQE" = type { %"class.cvc5::internal::theory::quantifiers::inst::CandidateGenerator", %"class.cvc5::internal::NodeTemplate", %"class.cvc5::internal::theory::eq::EqClassIterator", i64, ptr, %"class.cvc5::internal::NodeTemplate", i16, %"class.std::map.415" }
%"class.cvc5::internal::theory::eq::EqClassIterator" = type { ptr, i32, i32 }
%"class.std::map.415" = type { %"class.std::_Rb_tree.416" }
%"class.std::_Rb_tree.416" = type { %"struct.std::_Rb_tree<cvc5::internal::NodeTemplate<true>, std::pair<const cvc5::internal::NodeTemplate<true>, bool>, std::_Select1st<std::pair<const cvc5::internal::NodeTemplate<true>, bool>>, std::less<cvc5::internal::NodeTemplate<true>>>::_Rb_tree_impl" }
%"struct.std::_Rb_tree<cvc5::internal::NodeTemplate<true>, std::pair<const cvc5::internal::NodeTemplate<true>, bool>, std::_Select1st<std::pair<const cvc5::internal::NodeTemplate<true>, bool>>, std::less<cvc5::internal::NodeTemplate<true>>>::_Rb_tree_impl" = type { %"struct.std::_Rb_tree_key_compare", %"struct.std::_Rb_tree_header" }
%"struct.std::_Rb_tree_key_compare" = type { %"struct.std::less" }
%"struct.std::less" = type { i8 }
%"struct.std::_Rb_tree_header" = type { %"struct.std::_Rb_tree_node_base", i64 }
%"struct.std::_Rb_tree_node_base" = type { i32, ptr, ptr, ptr }
%"class.cvc5::internal::expr::NodeValue" = type { i64, i16, i32, [0 x ptr] }

; Function Attrs: mustprogress uwtable
define linkonce_odr hidden void @_ZN4cvc58internal4expr9NodeValue3incEv(ptr noundef nonnull align 8 dereferenceable(16) %this) #4 comdat align 2 {
entry:
  %this.addr = alloca ptr, align 8
  store ptr %this, ptr %this.addr, align 8
  %this1 = load ptr, ptr %this.addr, align 8
  %bf.load = load i64, ptr %this1, align 8
  %bf.lshr = lshr i64 %bf.load, 40
  %bf.clear = and i64 %bf.lshr, 1048575
  %bf.cast = trunc i64 %bf.clear to i32
  %cmp = icmp ult i32 %bf.cast, 1048574
  br i1 %cmp, label %if.then, label %if.else

if.then:                                          ; preds = %entry
  %bf.load2 = load i64, ptr %this1, align 8
  %bf.lshr3 = lshr i64 %bf.load2, 40
  %bf.clear4 = and i64 %bf.lshr3, 1048575
  %bf.cast5 = trunc i64 %bf.clear4 to i32
  %inc = add i32 %bf.cast5, 1
  %0 = zext i32 %inc to i64
  %bf.load6 = load i64, ptr %this1, align 8
  %bf.value = and i64 %0, 1048575
  %bf.shl = shl i64 %bf.value, 40
  %bf.clear7 = and i64 %bf.load6, -1152920405095219201
  %bf.set = or i64 %bf.clear7, %bf.shl
  store i64 %bf.set, ptr %this1, align 8
  br label %if.end25

if.else:                                          ; preds = %entry
  %bf.load8 = load i64, ptr %this1, align 8
  %bf.lshr9 = lshr i64 %bf.load8, 40
  %bf.clear10 = and i64 %bf.lshr9, 1048575
  %bf.cast11 = trunc i64 %bf.clear10 to i32
  %cmp12 = icmp eq i32 %bf.cast11, 1048574
  br i1 %cmp12, label %if.then13, label %if.end

if.then13:                                        ; preds = %if.else
  %bf.load14 = load i64, ptr %this1, align 8
  %bf.lshr15 = lshr i64 %bf.load14, 40
  %bf.clear16 = and i64 %bf.lshr15, 1048575
  %bf.cast17 = trunc i64 %bf.clear16 to i32
  %inc18 = add i32 %bf.cast17, 1
  %1 = zext i32 %inc18 to i64
  %bf.load19 = load i64, ptr %this1, align 8
  %bf.value20 = and i64 %1, 1048575
  %bf.shl21 = shl i64 %bf.value20, 40
  %bf.clear22 = and i64 %bf.load19, -1152920405095219201
  %bf.set23 = or i64 %bf.clear22, %bf.shl21
  store i64 %bf.set23, ptr %this1, align 8
  call void @_ZN4cvc58internal4expr9NodeValue20markRefCountMaxedOutEv(ptr noundef nonnull align 8 dereferenceable(16) %this1)
  br label %if.end

if.end:                                           ; preds = %if.then13, %if.else
  br label %if.end25

if.end25:                                         ; preds = %if.end, %if.then
  ret void
}

; Function Attrs: mustprogress nounwind uwtable
define linkonce_odr hidden noundef i32 @_ZNK4cvc58internal12NodeTemplateILb1EE7getKindEv(ptr noundef nonnull align 8 dereferenceable(8) %this) #5 comdat align 2 {
entry:
  %this.addr = alloca ptr, align 8
  store ptr %this, ptr %this.addr, align 8
  %this1 = load ptr, ptr %this.addr, align 8
  call void @_ZNK4cvc58internal12NodeTemplateILb1EE21assertTNodeNotExpiredEv(ptr noundef nonnull align 8 dereferenceable(8) %this1)
  %d_nv = getelementptr inbounds %"class.cvc5::internal::NodeTemplate", ptr %this1, i32 0, i32 0
  %0 = load ptr, ptr %d_nv, align 8
  %d_kind = getelementptr inbounds %"class.cvc5::internal::expr::NodeValue", ptr %0, i32 0, i32 1
  %bf.load = load i16, ptr %d_kind, align 8
  %bf.clear = and i16 %bf.load, 1023
  %bf.cast = zext i16 %bf.clear to i32
  ret i32 %bf.cast
}

; Function Attrs: mustprogress nounwind uwtable
define linkonce_odr hidden void @_ZNK4cvc58internal12NodeTemplateILb1EE21assertTNodeNotExpiredEv(ptr noundef nonnull align 8 dereferenceable(8) %this) #5 comdat align 2 {
entry:
  %this.addr = alloca ptr, align 8
  store ptr %this, ptr %this.addr, align 8
  ret void
}

; Function Attrs: mustprogress nounwind uwtable
define linkonce_odr hidden void @_ZN4cvc58internal12NodeTemplateILb0EED2Ev(ptr noundef nonnull align 8 dereferenceable(8) %this) unnamed_addr #5 comdat align 2 {
entry:
  %this.addr = alloca ptr, align 8
  store ptr %this, ptr %this.addr, align 8
  ret void
}

; Function Attrs: mustprogress nounwind uwtable
define linkonce_odr hidden noundef zeroext i1 @_ZNK4cvc58internal12NodeTemplateILb1EEeqILb1EEEbRKNS1_IXT_EEE(ptr noundef nonnull align 8 dereferenceable(8) %this, ptr noundef nonnull align 8 dereferenceable(8) %node) #5 comdat align 2 {
entry:
  %this.addr = alloca ptr, align 8
  %node.addr = alloca ptr, align 8
  store ptr %this, ptr %this.addr, align 8
  store ptr %node, ptr %node.addr, align 8
  %this1 = load ptr, ptr %this.addr, align 8
  call void @_ZNK4cvc58internal12NodeTemplateILb1EE21assertTNodeNotExpiredEv(ptr noundef nonnull align 8 dereferenceable(8) %this1)
  %0 = load ptr, ptr %node.addr, align 8
  call void @_ZNK4cvc58internal12NodeTemplateILb1EE21assertTNodeNotExpiredEv(ptr noundef nonnull align 8 dereferenceable(8) %0)
  %d_nv = getelementptr inbounds %"class.cvc5::internal::NodeTemplate", ptr %this1, i32 0, i32 0
  %1 = load ptr, ptr %d_nv, align 8
  %2 = load ptr, ptr %node.addr, align 8
  %d_nv2 = getelementptr inbounds %"class.cvc5::internal::NodeTemplate", ptr %2, i32 0, i32 0
  %3 = load ptr, ptr %d_nv2, align 8
  %cmp = icmp eq ptr %1, %3
  ret i1 %cmp
}

; Function Attrs: mustprogress nounwind uwtable
define linkonce_odr hidden void @_ZN4cvc58internal12NodeTemplateILb0EEC2ERKNS1_ILb1EEE(ptr noundef nonnull align 8 dereferenceable(8) %this, ptr noundef nonnull align 8 dereferenceable(8) %e) unnamed_addr #5 comdat align 2 {
entry:
  %this.addr = alloca ptr, align 8
  %e.addr = alloca ptr, align 8
  store ptr %this, ptr %this.addr, align 8
  store ptr %e, ptr %e.addr, align 8
  %this1 = load ptr, ptr %this.addr, align 8
  %0 = load ptr, ptr %e.addr, align 8
  %d_nv = getelementptr inbounds %"class.cvc5::internal::NodeTemplate", ptr %0, i32 0, i32 0
  %1 = load ptr, ptr %d_nv, align 8
  %d_nv2 = getelementptr inbounds %"class.cvc5::internal::NodeTemplate.432", ptr %this1, i32 0, i32 0
  store ptr %1, ptr %d_nv2, align 8
  ret void
}

; Function Attrs: mustprogress uwtable
define linkonce_odr hidden void @_ZN4cvc58internal12NodeTemplateILb1EEC2ERKS2_(ptr noundef nonnull align 8 dereferenceable(8) %this, ptr noundef nonnull align 8 dereferenceable(8) %e) unnamed_addr #4 comdat align 2 {
entry:
  %this.addr = alloca ptr, align 8
  %e.addr = alloca ptr, align 8
  store ptr %this, ptr %this.addr, align 8
  store ptr %e, ptr %e.addr, align 8
  %this1 = load ptr, ptr %this.addr, align 8
  %0 = load ptr, ptr %e.addr, align 8
  %d_nv = getelementptr inbounds %"class.cvc5::internal::NodeTemplate", ptr %0, i32 0, i32 0
  %1 = load ptr, ptr %d_nv, align 8
  %d_nv2 = getelementptr inbounds %"class.cvc5::internal::NodeTemplate", ptr %this1, i32 0, i32 0
  store ptr %1, ptr %d_nv2, align 8
  %d_nv3 = getelementptr inbounds %"class.cvc5::internal::NodeTemplate", ptr %this1, i32 0, i32 0
  %2 = load ptr, ptr %d_nv3, align 8
  call void @_ZN4cvc58internal4expr9NodeValue3incEv(ptr noundef nonnull align 8 dereferenceable(16) %2)
  ret void
}

; Function Attrs: mustprogress uwtable
define linkonce_odr hidden noundef zeroext i1 @_ZNK4cvc58internal12NodeTemplateILb1EE11hasOperatorEv(ptr noundef nonnull align 8 dereferenceable(8) %this) #4 comdat align 2 {
entry:
  %this.addr = alloca ptr, align 8
  store ptr %this, ptr %this.addr, align 8
  %this1 = load ptr, ptr %this.addr, align 8
  call void @_ZNK4cvc58internal12NodeTemplateILb1EE21assertTNodeNotExpiredEv(ptr noundef nonnull align 8 dereferenceable(8) %this1)
  %call = call noundef i32 @_ZNK4cvc58internal12NodeTemplateILb1EE7getKindEv(ptr noundef nonnull align 8 dereferenceable(8) %this1)
  %call2 = call noundef zeroext i1 @_ZN4cvc58internal11NodeManager11hasOperatorENS0_4kind6Kind_tE(i32 noundef %call)
  ret i1 %call2
}

; Function Attrs: mustprogress uwtable
define hidden noundef zeroext i1 @_ZN4cvc58internal6theory11quantifiers4inst20CandidateGeneratorQE18isLegalOpCandidateENS0_12NodeTemplateILb1EEE(ptr noundef nonnull align 8 dereferenceable(136) %this, ptr noundef %n) unnamed_addr #4 align 2 personality ptr @__gxx_personality_v0 {
entry:
  %retval = alloca i1, align 1
  %this.addr = alloca ptr, align 8
  %n.indirect_addr = alloca ptr, align 8
  %agg.tmp = alloca %"class.cvc5::internal::NodeTemplate", align 8
  %exn.slot = alloca ptr, align 8
  %ehselector.slot = alloca i32, align 4
  %ref.tmp = alloca %"class.cvc5::internal::NodeTemplate", align 8
  %agg.tmp5 = alloca %"class.cvc5::internal::NodeTemplate.432", align 8
  store ptr %this, ptr %this.addr, align 8
  store ptr %n, ptr %n.indirect_addr, align 8
  %this1 = load ptr, ptr %this.addr, align 8
  %call = call noundef zeroext i1 @_ZNK4cvc58internal12NodeTemplateILb1EE11hasOperatorEv(ptr noundef nonnull align 8 dereferenceable(8) %n)
  br i1 %call, label %if.then, label %if.end11

if.then:                                          ; preds = %entry
  call void @_ZN4cvc58internal12NodeTemplateILb1EEC2ERKS2_(ptr noundef nonnull align 8 dereferenceable(8) %agg.tmp, ptr noundef nonnull align 8 dereferenceable(8) %n)
  %call2 = invoke noundef zeroext i1 @_ZN4cvc58internal6theory11quantifiers4inst18CandidateGenerator16isLegalCandidateENS0_12NodeTemplateILb1EEE(ptr noundef nonnull align 8 dereferenceable(32) %this1, ptr noundef %agg.tmp)
          to label %invoke.cont unwind label %lpad

invoke.cont:                                      ; preds = %if.then
  call void @_ZN4cvc58internal12NodeTemplateILb1EED2Ev(ptr noundef nonnull align 8 dereferenceable(8) %agg.tmp) #3
  br i1 %call2, label %if.then3, label %if.end

if.then3:                                         ; preds = %invoke.cont
  %d_treg = getelementptr inbounds %"class.cvc5::internal::theory::quantifiers::inst::CandidateGenerator", ptr %this1, i32 0, i32 2
  %0 = load ptr, ptr %d_treg, align 8
  %call4 = call noundef ptr @_ZNK4cvc58internal6theory11quantifiers12TermRegistry15getTermDatabaseEv(ptr noundef nonnull align 8 dereferenceable(208) %0)
  call void @_ZN4cvc58internal12NodeTemplateILb0EEC2ERKNS1_ILb1EEE(ptr noundef nonnull align 8 dereferenceable(8) %agg.tmp5, ptr noundef nonnull align 8 dereferenceable(8) %n)
  invoke void @_ZN4cvc58internal6theory11quantifiers6TermDb16getMatchOperatorENS0_12NodeTemplateILb0EEE(ptr sret(%"class.cvc5::internal::NodeTemplate") align 8 %ref.tmp, ptr noundef nonnull align 8 dereferenceable(1072) %call4, ptr noundef %agg.tmp5)
          to label %invoke.cont7 unwind label %lpad6

invoke.cont7:                                     ; preds = %if.then3
  %d_op = getelementptr inbounds %"class.cvc5::internal::theory::quantifiers::inst::CandidateGeneratorQE", ptr %this1, i32 0, i32 1
  %call10 = invoke noundef zeroext i1 @_ZNK4cvc58internal12NodeTemplateILb1EEeqILb1EEEbRKNS1_IXT_EEE(ptr noundef nonnull align 8 dereferenceable(8) %ref.tmp, ptr noundef nonnull align 8 dereferenceable(8) %d_op)
          to label %invoke.cont9 unwind label %lpad8

invoke.cont9:                                     ; preds = %invoke.cont7
  store i1 %call10, ptr %retval, align 1
  call void @_ZN4cvc58internal12NodeTemplateILb1EED2Ev(ptr noundef nonnull align 8 dereferenceable(8) %ref.tmp) #3
  call void @_ZN4cvc58internal12NodeTemplateILb0EED2Ev(ptr noundef nonnull align 8 dereferenceable(8) %agg.tmp5) #3
  br label %return

lpad:                                             ; preds = %if.then
  %1 = landingpad { ptr, i32 }
          cleanup
  %2 = extractvalue { ptr, i32 } %1, 0
  store ptr %2, ptr %exn.slot, align 8
  %3 = extractvalue { ptr, i32 } %1, 1
  store i32 %3, ptr %ehselector.slot, align 4
  call void @_ZN4cvc58internal12NodeTemplateILb1EED2Ev(ptr noundef nonnull align 8 dereferenceable(8) %agg.tmp) #3
  br label %eh.resume

lpad6:                                            ; preds = %if.then3
  %4 = landingpad { ptr, i32 }
          cleanup
  %5 = extractvalue { ptr, i32 } %4, 0
  store ptr %5, ptr %exn.slot, align 8
  %6 = extractvalue { ptr, i32 } %4, 1
  store i32 %6, ptr %ehselector.slot, align 4
  br label %ehcleanup

lpad8:                                            ; preds = %invoke.cont7
  %7 = landingpad { ptr, i32 }
          cleanup
  %8 = extractvalue { ptr, i32 } %7, 0
  store ptr %8, ptr %exn.slot, align 8
  %9 = extractvalue { ptr, i32 } %7, 1
  store i32 %9, ptr %ehselector.slot, align 4
  call void @_ZN4cvc58internal12NodeTemplateILb1EED2Ev(ptr noundef nonnull align 8 dereferenceable(8) %ref.tmp) #3
  br label %ehcleanup

ehcleanup:                                        ; preds = %lpad8, %lpad6
  call void @_ZN4cvc58internal12NodeTemplateILb0EED2Ev(ptr noundef nonnull align 8 dereferenceable(8) %agg.tmp5) #3
  br label %eh.resume

if.end:                                           ; preds = %invoke.cont
  br label %if.end11

if.end11:                                         ; preds = %if.end, %entry
  store i1 false, ptr %retval, align 1
  br label %return

return:                                           ; preds = %if.end11, %invoke.cont9
  %10 = load i1, ptr %retval, align 1
  ret i1 %10

eh.resume:                                        ; preds = %ehcleanup, %lpad
  %exn = load ptr, ptr %exn.slot, align 8
  %sel = load i32, ptr %ehselector.slot, align 4
  %lpad.val = insertvalue { ptr, i32 } poison, ptr %exn, 0
  %lpad.val12 = insertvalue { ptr, i32 } %lpad.val, i32 %sel, 1
  resume { ptr, i32 } %lpad.val12
}