; Function Attrs: mustprogress uwtable
define hidden noundef zeroext i1 @_ZN4cvc58internal6theory11quantifiers4inst20CandidateGeneratorQE18isLegalOpCandidateENS0_12NodeTemplateILb1EEE(ptr nocapture noundef nonnull readonly align 8 dereferenceable(136) %this, ptr nocapture noundef readonly %n) unnamed_addr #3 align 2 personality ptr @__gxx_personality_v0 {
entry:
  %agg.tmp = alloca %"class.cvc5::internal::NodeTemplate", align 8
  %ref.tmp = alloca %"class.cvc5::internal::NodeTemplate", align 8
  %agg.tmp5 = alloca %"class.cvc5::internal::NodeTemplate.432", align 8
  %0 = load ptr, ptr %n, align 8
  %d_kind.i.i = getelementptr inbounds i8, ptr %0, i64 8
  %bf.load.i.i = load i16, ptr %d_kind.i.i, align 8
  %bf.clear.i.i = and i16 %bf.load.i.i, 1023
  %bf.cast.i.i = zext nneg i16 %bf.clear.i.i to i32
  %call2.i = tail call noundef zeroext i1 @_ZN4cvc58internal11NodeManager11hasOperatorENS0_4kind6Kind_tE(i32 noundef %bf.cast.i.i)
  br i1 %call2.i, label %if.then, label %return

if.then:                                          ; preds = %entry
  %1 = load ptr, ptr %n, align 8
  store ptr %1, ptr %agg.tmp, align 8
  %bf.load.i.i2 = load i64, ptr %1, align 8
  %bf.lshr.i.i = lshr i64 %bf.load.i.i2, 40
  %2 = trunc i64 %bf.lshr.i.i to i32
  %bf.cast.i.i3 = and i32 %2, 1048575
  %cmp.i.i = icmp ult i32 %bf.cast.i.i3, 1048574
  br i1 %cmp.i.i, label %if.then.i.i, label %if.else.i.i

if.then.i.i:                                      ; preds = %if.then
  %bf.value.i.i = add i64 %bf.load.i.i2, 1099511627776
  %bf.shl.i.i = and i64 %bf.value.i.i, 1152920405095219200
  %bf.clear7.i.i = and i64 %bf.load.i.i2, -1152920405095219201
  %bf.set.i.i = or disjoint i64 %bf.shl.i.i, %bf.clear7.i.i
  store i64 %bf.set.i.i, ptr %1, align 8
  br label %_ZN4cvc58internal12NodeTemplateILb1EEC2ERKS2_.exit

if.else.i.i:                                      ; preds = %if.then
  %cmp12.i.i = icmp eq i32 %bf.cast.i.i3, 1048574
  br i1 %cmp12.i.i, label %if.then13.i.i, label %_ZN4cvc58internal12NodeTemplateILb1EEC2ERKS2_.exit

if.then13.i.i:                                    ; preds = %if.else.i.i
  %bf.set23.i.i = or i64 %bf.load.i.i2, 1152920405095219200
  store i64 %bf.set23.i.i, ptr %1, align 8
  tail call void @_ZN4cvc58internal4expr9NodeValue20markRefCountMaxedOutEv(ptr noundef nonnull align 8 dereferenceable(16) %1)
  br label %_ZN4cvc58internal12NodeTemplateILb1EEC2ERKS2_.exit

_ZN4cvc58internal12NodeTemplateILb1EEC2ERKS2_.exit: ; preds = %if.then.i.i, %if.else.i.i, %if.then13.i.i
  %call2 = invoke noundef zeroext i1 @_ZN4cvc58internal6theory11quantifiers4inst18CandidateGenerator16isLegalCandidateENS0_12NodeTemplateILb1EEE(ptr noundef nonnull align 8 dereferenceable(32) %this, ptr noundef nonnull %agg.tmp)
          to label %invoke.cont unwind label %lpad

invoke.cont:                                      ; preds = %_ZN4cvc58internal12NodeTemplateILb1EEC2ERKS2_.exit
  %bf.load.i.i4 = load i64, ptr %1, align 8
  %3 = and i64 %bf.load.i.i4, 1152920405095219200
  %cmp.not.i.i = icmp eq i64 %3, 1152920405095219200
  br i1 %cmp.not.i.i, label %_ZN4cvc58internal12NodeTemplateILb1EED2Ev.exit, label %if.then.i.i5

if.then.i.i5:                                     ; preds = %invoke.cont
  %bf.value.i.i6 = add i64 %bf.load.i.i4, 1152920405095219200
  %bf.shl.i.i7 = and i64 %bf.value.i.i6, 1152920405095219200
  %bf.clear7.i.i8 = and i64 %bf.load.i.i4, -1152920405095219201
  %bf.set.i.i9 = or disjoint i64 %bf.shl.i.i7, %bf.clear7.i.i8
  store i64 %bf.set.i.i9, ptr %1, align 8
  %cmp12.i.i10 = icmp eq i64 %bf.shl.i.i7, 0
  br i1 %cmp12.i.i10, label %if.then13.i.i11, label %_ZN4cvc58internal12NodeTemplateILb1EED2Ev.exit

if.then13.i.i11:                                  ; preds = %if.then.i.i5
  invoke void @_ZN4cvc58internal4expr9NodeValue15markForDeletionEv(ptr noundef nonnull align 8 dereferenceable(16) %1)
          to label %_ZN4cvc58internal12NodeTemplateILb1EED2Ev.exit unwind label %terminate.lpad.i

terminate.lpad.i:                                 ; preds = %if.then13.i.i11
  %4 = landingpad { ptr, i32 }
          catch ptr null
  %5 = extractvalue { ptr, i32 } %4, 0
  tail call void @__clang_call_terminate(ptr %5) #14
  unreachable

_ZN4cvc58internal12NodeTemplateILb1EED2Ev.exit:   ; preds = %invoke.cont, %if.then.i.i5, %if.then13.i.i11
  br i1 %call2, label %if.then3, label %return

if.then3:                                         ; preds = %_ZN4cvc58internal12NodeTemplateILb1EED2Ev.exit
  %d_treg = getelementptr inbounds i8, ptr %this, i64 24
  %6 = load ptr, ptr %d_treg, align 8
  %call4 = tail call noundef ptr @_ZNK4cvc58internal6theory11quantifiers12TermRegistry15getTermDatabaseEv(ptr noundef nonnull align 8 dereferenceable(208) %6)
  %7 = load ptr, ptr %n, align 8
  store ptr %7, ptr %agg.tmp5, align 8
  call void @_ZN4cvc58internal6theory11quantifiers6TermDb16getMatchOperatorENS0_12NodeTemplateILb0EEE(ptr nonnull sret(%"class.cvc5::internal::NodeTemplate") align 8 %ref.tmp, ptr noundef nonnull align 8 dereferenceable(1072) %call4, ptr noundef nonnull %agg.tmp5)
  %d_op = getelementptr inbounds i8, ptr %this, i64 32
  %8 = load ptr, ptr %ref.tmp, align 8
  %9 = load ptr, ptr %d_op, align 8
  %cmp.i = icmp eq ptr %8, %9
  %bf.load.i.i12 = load i64, ptr %8, align 8
  %10 = and i64 %bf.load.i.i12, 1152920405095219200
  %cmp.not.i.i13 = icmp eq i64 %10, 1152920405095219200
  br i1 %cmp.not.i.i13, label %return, label %if.then.i.i14

if.then.i.i14:                                    ; preds = %if.then3
  %bf.value.i.i15 = add i64 %bf.load.i.i12, 1152920405095219200
  %bf.shl.i.i16 = and i64 %bf.value.i.i15, 1152920405095219200
  %bf.clear7.i.i17 = and i64 %bf.load.i.i12, -1152920405095219201
  %bf.set.i.i18 = or disjoint i64 %bf.shl.i.i16, %bf.clear7.i.i17
  store i64 %bf.set.i.i18, ptr %8, align 8
  %cmp12.i.i19 = icmp eq i64 %bf.shl.i.i16, 0
  br i1 %cmp12.i.i19, label %if.then13.i.i20, label %return

if.then13.i.i20:                                  ; preds = %if.then.i.i14
  invoke void @_ZN4cvc58internal4expr9NodeValue15markForDeletionEv(ptr noundef nonnull align 8 dereferenceable(16) %8)
          to label %return unwind label %terminate.lpad.i21

terminate.lpad.i21:                               ; preds = %if.then13.i.i20
  %11 = landingpad { ptr, i32 }
          catch ptr null
  %12 = extractvalue { ptr, i32 } %11, 0
  call void @__clang_call_terminate(ptr %12) #14
  unreachable

lpad:                                             ; preds = %_ZN4cvc58internal12NodeTemplateILb1EEC2ERKS2_.exit
  %13 = landingpad { ptr, i32 }
          cleanup
  call void @_ZN4cvc58internal12NodeTemplateILb1EED2Ev(ptr noundef nonnull align 8 dereferenceable(8) %agg.tmp) #15
  resume { ptr, i32 } %13

return:                                           ; preds = %if.then13.i.i20, %if.then.i.i14, %if.then3, %entry, %_ZN4cvc58internal12NodeTemplateILb1EED2Ev.exit
  %retval.0 = phi i1 [ false, %_ZN4cvc58internal12NodeTemplateILb1EED2Ev.exit ], [ false, %entry ], [ %cmp.i, %if.then3 ], [ %cmp.i, %if.then.i.i14 ], [ %cmp.i, %if.then13.i.i20 ]
  ret i1 %retval.0
}